target datalayout = "e-m:e-p270:32:32-p271:32:32-p272:64:64-i64:64-i128:128-f80:128-n8:16:32:64-S128"
target triple = "x86_64-pc-linux-gnu"

%"class.cvc5::internal::Integer" = type { %class.__gmp_expr }
%class.__gmp_expr = type { [1 x %struct.__mpz_struct] }
%struct.__mpz_struct = type { i32, i32, ptr }
%"class.cvc5::internal::BitVector" = type { i32, %"class.cvc5::internal::Integer" }

; Function Attrs: mustprogress nounwind uwtable
define linkonce_odr hidden void @_ZN10__gmp_exprIA1_12__mpz_structS1_ED2Ev(ptr noundef nonnull align 8 dereferenceable(16) %0) unnamed_addr #6 comdat align 2 personality ptr @__gxx_personality_v0 {
  %2 = alloca ptr, align 8
  store ptr %0, ptr %2, align 8, !tbaa !45
  %3 = load ptr, ptr %2, align 8
  %4 = getelementptr inbounds nuw %class.__gmp_expr, ptr %3, i32 0, i32 0
  %5 = getelementptr inbounds [1 x %struct.__mpz_struct], ptr %4, i64 0, i64 0
  invoke void @__gmpz_clear(ptr noundef %5)
          to label %6 unwind label %7

6:                                                ; preds = %1
  ret void

7:                                                ; preds = %1
  %8 = landingpad { ptr, i32 }
          catch ptr null
  %9 = extractvalue { ptr, i32 } %8, 0
  call void @__clang_call_terminate(ptr %9) #15
  unreachable
}

; Function Attrs: mustprogress nounwind uwtable
define linkonce_odr hidden void @_ZN4cvc58internal7IntegerD2Ev(ptr noundef nonnull align 8 dereferenceable(16) %0) unnamed_addr #6 comdat align 2 {
  %2 = alloca ptr, align 8
  store ptr %0, ptr %2, align 8, !tbaa !16
  %3 = load ptr, ptr %2, align 8
  %4 = getelementptr inbounds nuw %"class.cvc5::internal::Integer", ptr %3, i32 0, i32 0
  call void @_ZN10__gmp_exprIA1_12__mpz_structS1_ED2Ev(ptr noundef nonnull align 8 dereferenceable(16) %4) #3
  ret void
}

; Function Attrs: mustprogress uwtable
define linkonce_odr hidden void @_ZN4cvc58internal9BitVectorC2EjRKNS0_7IntegerE(ptr noundef nonnull align 8 dereferenceable(24) %0, i32 noundef %1, ptr noundef nonnull align 8 dereferenceable(16) %2) unnamed_addr #4 comdat align 2 {
  %4 = alloca ptr, align 8
  %5 = alloca i32, align 4
  %6 = alloca ptr, align 8
  store ptr %0, ptr %4, align 8, !tbaa !3
  store i32 %1, ptr %5, align 4, !tbaa !10
  store ptr %2, ptr %6, align 8, !tbaa !16
  %7 = load ptr, ptr %4, align 8
  %8 = getelementptr inbounds nuw %"class.cvc5::internal::BitVector", ptr %7, i32 0, i32 0
  %9 = load i32, ptr %5, align 4, !tbaa !10
  store i32 %9, ptr %8, align 8, !tbaa !12
  %10 = getelementptr inbounds nuw %"class.cvc5::internal::BitVector", ptr %7, i32 0, i32 1
  %11 = load ptr, ptr %6, align 8, !tbaa !16
  %12 = load i32, ptr %5, align 4, !tbaa !10
  call void @_ZNK4cvc58internal7Integer9modByPow2Ej(ptr dead_on_unwind writable sret(%"class.cvc5::internal::Integer") align 8 %10, ptr noundef nonnull align 8 dereferenceable(16) %11, i32 noundef %12)
  ret void
}

; Function Attrs: mustprogress nounwind uwtable
define hidden noundef nonnull align 8 dereferenceable(16) ptr @_ZNK4cvc58internal9BitVector8getValueEv(ptr noundef nonnull align 8 dereferenceable(24) %0) #6 align 2 {
  %2 = alloca ptr, align 8
  store ptr %0, ptr %2, align 8, !tbaa !3
  %3 = load ptr, ptr %2, align 8
  %4 = getelementptr inbounds nuw %"class.cvc5::internal::BitVector", ptr %3, i32 0, i32 1
  ret ptr %4
}

; Function Attrs: mustprogress nounwind uwtable
define hidden noundef i32 @_ZNK4cvc58internal9BitVector7getSizeEv(ptr noundef nonnull align 8 dereferenceable(24) %0) #6 align 2 {
  %2 = alloca ptr, align 8
  store ptr %0, ptr %2, align 8, !tbaa !3
  %3 = load ptr, ptr %2, align 8
  %4 = getelementptr inbounds nuw %"class.cvc5::internal::BitVector", ptr %3, i32 0, i32 0
  %5 = load i32, ptr %4, align 8, !tbaa !12
  ret i32 %5
}

; Function Attrs: mustprogress uwtable
define hidden void @_ZN4cvc58internalcoERKNS0_9BitVectorE(ptr dead_on_unwind noalias writable sret(%"class.cvc5::internal::BitVector") align 8 %0, ptr noundef nonnull align 8 dereferenceable(24) %1) #4 personality ptr @__gxx_personality_v0 {
  %3 = alloca ptr, align 8
  %4 = alloca ptr, align 8
  %5 = alloca %"class.cvc5::internal::Integer", align 8
  %6 = alloca ptr, align 8
  %7 = alloca i32, align 4
  store ptr %0, ptr %3, align 8
  store ptr %1, ptr %4, align 8, !tbaa !3
  %8 = load ptr, ptr %4, align 8, !tbaa !3
  %9 = call noundef i32 @_ZNK4cvc58internal9BitVector7getSizeEv(ptr noundef nonnull align 8 dereferenceable(24) %8)
  call void @llvm.lifetime.start.p0(i64 16, ptr %5) #3
  %10 = load ptr, ptr %4, align 8, !tbaa !3
  %11 = call noundef nonnull align 8 dereferenceable(16) ptr @_ZNK4cvc58internal9BitVector8getValueEv(ptr noundef nonnull align 8 dereferenceable(24) %10)
  call void @_ZNK4cvc58internal7Integer10bitwiseNotEv(ptr dead_on_unwind writable sret(%"class.cvc5::internal::Integer") align 8 %5, ptr noundef nonnull align 8 dereferenceable(16) %11)
  invoke void @_ZN4cvc58internal9BitVectorC2EjRKNS0_7IntegerE(ptr noundef nonnull align 8 dereferenceable(24) %0, i32 noundef %9, ptr noundef nonnull align 8 dereferenceable(16) %5)
          to label %12 unwind label %13

12:                                               ; preds = %2
  call void @_ZN4cvc58internal7IntegerD2Ev(ptr noundef nonnull align 8 dereferenceable(16) %5) #3
  call void @llvm.lifetime.end.p0(i64 16, ptr %5) #3
  ret void

13:                                               ; preds = %2
  %14 = landingpad { ptr, i32 }
          cleanup
  %15 = extractvalue { ptr, i32 } %14, 0
  store ptr %15, ptr %6, align 8
  %16 = extractvalue { ptr, i32 } %14, 1
  store i32 %16, ptr %7, align 4
  call void @_ZN4cvc58internal7IntegerD2Ev(ptr noundef nonnull align 8 dereferenceable(16) %5) #3
  call void @llvm.lifetime.end.p0(i64 16, ptr %5) #3
  br label %17

17:                                               ; preds = %13
  %18 = load ptr, ptr %6, align 8
  %19 = load i32, ptr %7, align 4
  %20 = insertvalue { ptr, i32 } poison, ptr %18, 0
  %21 = insertvalue { ptr, i32 } %20, i32 %19, 1
  resume { ptr, i32 } %21
}